target datalayout = "e-m:e-p270:32:32-p271:32:32-p272:64:64-i64:64-i128:128-f80:128-n8:16:32:64-S128"
target triple = "x86_64-pc-linux-gnu"

%struct.AllocFnsTy = type { i8, i32, i32, i32, i32, i32 }
%"class.std::optional" = type { %"struct.std::_Optional_base" }
%"struct.std::_Optional_base" = type { %"struct.std::_Optional_payload" }
%"struct.std::_Optional_payload" = type { %"struct.std::_Optional_payload_base.base", [3 x i8] }
%"struct.std::_Optional_payload_base.base" = type <{ %"union.std::_Optional_payload_base<AllocFnsTy>::_Storage", i8 }>
%"union.std::_Optional_payload_base<AllocFnsTy>::_Storage" = type { %struct.AllocFnsTy }
%"struct.std::_Optional_payload_base" = type <{ %"union.std::_Optional_payload_base<AllocFnsTy>::_Storage", i8, [3 x i8] }>

; Function Attrs: mustprogress nounwind uwtable
define linkonce_odr hidden void @_ZNSt22_Optional_payload_baseI10AllocFnsTyE8_StorageIS0_Lb1EEC2Ev(ptr noundef nonnull align 4 dereferenceable(24) %0) unnamed_addr #1 comdat align 2 {
  %2 = alloca ptr, align 8
  store ptr %0, ptr %2, align 8
  ret void
}

; Function Attrs: mustprogress nounwind uwtable
define linkonce_odr hidden void @_ZNSt22_Optional_payload_baseI10AllocFnsTyEC2Ev(ptr noundef nonnull align 4 dereferenceable(25) %0) unnamed_addr #1 comdat align 2 {
  %2 = alloca ptr, align 8
  store ptr %0, ptr %2, align 8
  %3 = load ptr, ptr %2, align 8
  %4 = getelementptr inbounds nuw %"struct.std::_Optional_payload_base", ptr %3, i32 0, i32 0
  call void @_ZNSt22_Optional_payload_baseI10AllocFnsTyE8_StorageIS0_Lb1EEC2Ev(ptr noundef nonnull align 4 dereferenceable(24) %4) #2
  %5 = getelementptr inbounds nuw %"struct.std::_Optional_payload_base", ptr %3, i32 0, i32 1
  store i8 0, ptr %5, align 4
  ret void
}

; Function Attrs: mustprogress nounwind uwtable
define linkonce_odr hidden void @_ZNSt17_Optional_payloadI10AllocFnsTyLb1ELb1ELb1EEC2Ev(ptr noundef nonnull align 4 dereferenceable(25) %0) unnamed_addr #1 comdat align 2 {
  %2 = alloca ptr, align 8
  store ptr %0, ptr %2, align 8
  %3 = load ptr, ptr %2, align 8
  call void @_ZNSt22_Optional_payload_baseI10AllocFnsTyEC2Ev(ptr noundef nonnull align 4 dereferenceable(25) %3) #2
  ret void
}

; Function Attrs: mustprogress nounwind uwtable
define linkonce_odr hidden void @_ZNSt14_Optional_baseI10AllocFnsTyLb1ELb1EEC2Ev(ptr noundef nonnull align 4 dereferenceable(28) %0) unnamed_addr #1 comdat align 2 {
  %2 = alloca ptr, align 8
  store ptr %0, ptr %2, align 8
  %3 = load ptr, ptr %2, align 8
  %4 = getelementptr inbounds nuw %"struct.std::_Optional_base", ptr %3, i32 0, i32 0
  call void @_ZNSt17_Optional_payloadI10AllocFnsTyLb1ELb1ELb1EEC2Ev(ptr noundef nonnull align 4 dereferenceable(25) %4) #2
  ret void
}

; Function Attrs: mustprogress nounwind uwtable
define linkonce_odr hidden noundef zeroext i1 @_ZNKSt19_Optional_base_implI10AllocFnsTySt14_Optional_baseIS0_Lb1ELb1EEE13_M_is_engagedEv(ptr noundef nonnull align 1 dereferenceable(1) %0) #1 comdat align 2 {
  %2 = alloca ptr, align 8
  store ptr %0, ptr %2, align 8
  %3 = load ptr, ptr %2, align 8
  %4 = getelementptr inbounds nuw %"struct.std::_Optional_base", ptr %3, i32 0, i32 0
  %5 = getelementptr inbounds nuw %"struct.std::_Optional_payload_base", ptr %4, i32 0, i32 1
  %6 = load i8, ptr %5, align 4
  %7 = trunc i8 %6 to i1
  ret i1 %7
}

; Function Attrs: mustprogress nounwind uwtable
define linkonce_odr hidden void @_ZNSt8optionalI10AllocFnsTyEC2ESt9nullopt_t(ptr noundef nonnull align 4 dereferenceable(28) %0) unnamed_addr #1 comdat align 2 {
  %2 = alloca ptr, align 8
  store ptr %0, ptr %2, align 8
  %3 = load ptr, ptr %2, align 8
  call void @_ZNSt14_Optional_baseI10AllocFnsTyLb1ELb1EEC2Ev(ptr noundef nonnull align 4 dereferenceable(28) %3) #2
  ret void
}

; Function Attrs: mustprogress nounwind uwtable
define linkonce_odr hidden noundef zeroext i1 @_ZNKSt8optionalI10AllocFnsTyE9has_valueEv(ptr noundef nonnull align 4 dereferenceable(28) %0) #1 comdat align 2 {
  %2 = alloca ptr, align 8
  store ptr %0, ptr %2, align 8
  %3 = load ptr, ptr %2, align 8
  %4 = call noundef zeroext i1 @_ZNKSt19_Optional_base_implI10AllocFnsTySt14_Optional_baseIS0_Lb1ELb1EEE13_M_is_engagedEv(ptr noundef nonnull align 1 dereferenceable(1) %3) #2
  ret i1 %4
}

; Function Attrs: mustprogress nounwind uwtable
define internal void @_ZL17getAllocationDataPKN4llvm5ValueE9AllocTypePKNS_17TargetLibraryInfoE(ptr dead_on_unwind noalias writable sret(%"class.std::optional") align 4 %0, ptr noundef %1, i8 noundef zeroext %2, ptr noundef %3) #1 {
  %5 = alloca ptr, align 8
  %6 = alloca i8, align 1
  %7 = alloca ptr, align 8
  %8 = alloca ptr, align 8
  store ptr %1, ptr %5, align 8
  store i8 %2, ptr %6, align 1
  store ptr %3, ptr %7, align 8
  %9 = load ptr, ptr %5, align 8
  %10 = call noundef ptr @_ZL17getCalledFunctionPKN4llvm5ValueE(ptr noundef %9)
  store ptr %10, ptr %8, align 8
  %11 = load ptr, ptr %8, align 8
  %12 = icmp ne ptr %11, null
  br i1 %12, label %13, label %17

13:                                               ; preds = %4
  %14 = load ptr, ptr %8, align 8
  %15 = load i8, ptr %6, align 1
  %16 = load ptr, ptr %7, align 8
  call void @_ZL28getAllocationDataForFunctionPKN4llvm8FunctionE9AllocTypePKNS_17TargetLibraryInfoE(ptr dead_on_unwind writable sret(%"class.std::optional") align 4 %0, ptr noundef %14, i8 noundef zeroext %15, ptr noundef %16)
  br label %18

17:                                               ; preds = %4
  call void @_ZNSt8optionalI10AllocFnsTyEC2ESt9nullopt_t(ptr noundef nonnull align 4 dereferenceable(28) %0) #2
  br label %18

18:                                               ; preds = %17, %13
  ret void
}

; Function Attrs: mustprogress nounwind uwtable
define dso_local noundef zeroext i1 @_ZN4llvm11isNewLikeFnEPKNS_5ValueEPKNS_17TargetLibraryInfoE(ptr noundef %0, ptr noundef %1) #1 {
  %3 = alloca ptr, align 8
  %4 = alloca ptr, align 8
  %5 = alloca %"class.std::optional", align 4
  store ptr %0, ptr %3, align 8
  store ptr %1, ptr %4, align 8
  %6 = load ptr, ptr %3, align 8
  %7 = load ptr, ptr %4, align 8
  call void @_ZL17getAllocationDataPKN4llvm5ValueE9AllocTypePKNS_17TargetLibraryInfoE(ptr dead_on_unwind writable sret(%"class.std::optional") align 4 %5, ptr noundef %6, i8 noundef zeroext 1, ptr noundef %7)
  %8 = call noundef zeroext i1 @_ZNKSt8optionalI10AllocFnsTyE9has_valueEv(ptr noundef nonnull align 4 dereferenceable(28) %5) #2
  ret i1 %8
}