; Function Attrs: mustprogress nounwind uwtable
define dso_local noundef zeroext i1 @_ZN4llvm11isNewLikeFnEPKNS_5ValueEPKNS_17TargetLibraryInfoE(ptr noundef %0, ptr noundef %1) local_unnamed_addr #0 {
  %3 = alloca %"class.std::optional", align 4
  %4 = tail call fastcc noundef ptr @_ZL17getCalledFunctionPKN4llvm5ValueE(ptr noundef %0), !noalias !10
  %.not.i = icmp eq ptr %4, null
  br i1 %.not.i, label %_ZL17getAllocationDataPKN4llvm5ValueE9AllocTypePKNS_17TargetLibraryInfoE.exit, label %5

5:                                                ; preds = %2
  call fastcc void @_ZL28getAllocationDataForFunctionPKN4llvm8FunctionE9AllocTypePKNS_17TargetLibraryInfoE(ptr dead_on_unwind noalias nonnull writable align 4 %3, ptr noundef nonnull %4, i8 noundef zeroext 1, ptr noundef %1)
  %.phi.trans.insert = getelementptr inbounds nuw i8, ptr %3, i64 24
  %.pre = load i8, ptr %.phi.trans.insert, align 4
  %6 = trunc i8 %.pre to i1
  br label %_ZL17getAllocationDataPKN4llvm5ValueE9AllocTypePKNS_17TargetLibraryInfoE.exit

_ZL17getAllocationDataPKN4llvm5ValueE9AllocTypePKNS_17TargetLibraryInfoE.exit: ; preds = %2, %5
  %7 = phi i1 [ %6, %5 ], [ false, %2 ]
  ret i1 %7
}